; Function Attrs: mustprogress nofree norecurse nosync nounwind willreturn memory(read, inaccessiblemem: none) uwtable
define hidden noundef zeroext i1 @_ZN3euf13th_euf_solver7is_trueEN3sat7literalE(ptr nocapture noundef nonnull readonly align 8 dereferenceable(108) %this, i32 %lit.coerce) local_unnamed_addr #7 align 2 {
entry:
  %ctx = getelementptr inbounds i8, ptr %this, i64 80
  %0 = load ptr, ptr %ctx, align 8
  %m_solver.i = getelementptr inbounds i8, ptr %0, i64 24
  %1 = load ptr, ptr %m_solver.i, align 8
  %m_assignment.i = getelementptr inbounds i8, ptr %1, i64 3440
  %2 = load ptr, ptr %m_assignment.i, align 8
  %idxprom.i.i = zext i32 %lit.coerce to i64
  %arrayidx.i.i = getelementptr inbounds i32, ptr %2, i64 %idxprom.i.i
  %3 = load i32, ptr %arrayidx.i.i, align 4
  %cmp = icmp eq i32 %3, 1
  ret i1 %cmp
}